target datalayout = "e-m:e-p270:32:32-p271:32:32-p272:64:64-i64:64-i128:128-f80:128-n8:16:32:64-S128"
target triple = "x86_64-unknown-linux-gnu"

%"class.llvh::FoldingSetNodeIDRef" = type { ptr, i64 }

; Function Attrs: mustprogress nounwind uwtable
define hidden noundef zeroext i1 @_ZNK4llvh19FoldingSetNodeIDRefltES0_(ptr noundef nonnull align 8 dereferenceable(16) %this, ptr %RHS.coerce0, i64 %RHS.coerce1) #0 align 2 {
entry:
  %retval = alloca i1, align 1
  %RHS = alloca %"class.llvh::FoldingSetNodeIDRef", align 8
  %this.addr = alloca ptr, align 8
  %0 = getelementptr inbounds { ptr, i64 }, ptr %RHS, i32 0, i32 0
  store ptr %RHS.coerce0, ptr %0, align 8
  %1 = getelementptr inbounds { ptr, i64 }, ptr %RHS, i32 0, i32 1
  store i64 %RHS.coerce1, ptr %1, align 8
  store ptr %this, ptr %this.addr, align 8
  %this1 = load ptr, ptr %this.addr, align 8
  %Size = getelementptr inbounds %"class.llvh::FoldingSetNodeIDRef", ptr %this1, i32 0, i32 1
  %2 = load i64, ptr %Size, align 8
  %Size2 = getelementptr inbounds %"class.llvh::FoldingSetNodeIDRef", ptr %RHS, i32 0, i32 1
  %3 = load i64, ptr %Size2, align 8
  %cmp = icmp ne i64 %2, %3
  br i1 %cmp, label %if.then, label %if.end

if.then:                                          ; preds = %entry
  %Size3 = getelementptr inbounds %"class.llvh::FoldingSetNodeIDRef", ptr %this1, i32 0, i32 1
  %4 = load i64, ptr %Size3, align 8
  %Size4 = getelementptr inbounds %"class.llvh::FoldingSetNodeIDRef", ptr %RHS, i32 0, i32 1
  %5 = load i64, ptr %Size4, align 8
  %cmp5 = icmp ult i64 %4, %5
  store i1 %cmp5, ptr %retval, align 1
  br label %return

if.end:                                           ; preds = %entry
  %Data = getelementptr inbounds %"class.llvh::FoldingSetNodeIDRef", ptr %this1, i32 0, i32 0
  %6 = load ptr, ptr %Data, align 8
  %Data6 = getelementptr inbounds %"class.llvh::FoldingSetNodeIDRef", ptr %RHS, i32 0, i32 0
  %7 = load ptr, ptr %Data6, align 8
  %Size7 = getelementptr inbounds %"class.llvh::FoldingSetNodeIDRef", ptr %this1, i32 0, i32 1
  %8 = load i64, ptr %Size7, align 8
  %mul = mul i64 %8, 4
  %call = call i32 @memcmp(ptr noundef %6, ptr noundef %7, i64 noundef %mul) #10
  %cmp8 = icmp slt i32 %call, 0
  store i1 %cmp8, ptr %retval, align 1
  br label %return

return:                                           ; preds = %if.end, %if.then
  %9 = load i1, ptr %retval, align 1
  ret i1 %9
}